; ModuleID = '32/553.c'
source_filename = "32/553.c"
target datalayout = "e-m:e-p270:32:32-p271:32:32-p272:64:64-i64:64-f80:128-n8:16:32:64-S128"
target triple = "x86_64-pc-linux-gnu"

@.str = private unnamed_addr constant [3 x i8] c"%d\00", align 1
@.str.1 = private unnamed_addr constant [3 x i8] c"%s\00", align 1
@.str.2 = private unnamed_addr constant [3 x i8] c"%c\00", align 1
@.str.3 = private unnamed_addr constant [2 x i8] c"\0A\00", align 1

; Function Attrs: noinline nounwind uwtable
define dso_local i32 @main() #0 {
  %1 = alloca i32, align 4
  %2 = alloca [100 x i8], align 16
  %3 = alloca [100 x i8], align 16
  %4 = alloca i32, align 4
  %5 = alloca i32, align 4
  %6 = alloca i32, align 4
  %7 = alloca i32, align 4
  %8 = alloca i32, align 4
  %9 = alloca i32, align 4
  %10 = alloca i32, align 4
  store i32 0, i32* %1, align 4
  %11 = call i32 (i8*, ...) @__isoc99_scanf(i8* getelementptr inbounds ([3 x i8], [3 x i8]* @.str, i64 0, i64 0), i32* %4)
  store i32 0, i32* %7, align 4
  br label %12

12:                                               ; preds = %131, %0
  %13 = load i32, i32* %7, align 4
  %14 = load i32, i32* %4, align 4
  %15 = icmp slt i32 %13, %14
  br i1 %15, label %16, label %134

16:                                               ; preds = %12
  %17 = getelementptr inbounds [100 x i8], [100 x i8]* %2, i64 0, i64 0
  %18 = call i32 (i8*, ...) @__isoc99_scanf(i8* getelementptr inbounds ([3 x i8], [3 x i8]* @.str.1, i64 0, i64 0), i8* %17)
  %19 = getelementptr inbounds [100 x i8], [100 x i8]* %3, i64 0, i64 0
  %20 = call i32 (i8*, ...) @__isoc99_scanf(i8* getelementptr inbounds ([3 x i8], [3 x i8]* @.str.1, i64 0, i64 0), i8* %19)
  %21 = getelementptr inbounds [100 x i8], [100 x i8]* %2, i64 0, i64 0
  %22 = call i64 @strlen(i8* %21) #3
  %23 = trunc i64 %22 to i32
  store i32 %23, i32* %5, align 4
  %24 = getelementptr inbounds [100 x i8], [100 x i8]* %3, i64 0, i64 0
  %25 = call i64 @strlen(i8* %24) #3
  %26 = trunc i64 %25 to i32
  store i32 %26, i32* %6, align 4
  %27 = load i32, i32* %5, align 4
  %28 = load i32, i32* %6, align 4
  %29 = sub nsw i32 %27, %28
  store i32 %29, i32* %9, align 4
  %30 = load i32, i32* %6, align 4
  %31 = sub nsw i32 %30, 1
  store i32 %31, i32* %8, align 4
  br label %32

32:                                               ; preds = %110, %16
  %33 = load i32, i32* %8, align 4
  %34 = icmp sge i32 %33, 0
  br i1 %34, label %35, label %113

35:                                               ; preds = %32
  %36 = load i32, i32* %8, align 4
  %37 = load i32, i32* %9, align 4
  %38 = add nsw i32 %36, %37
  %39 = sext i32 %38 to i64
  %40 = getelementptr inbounds [100 x i8], [100 x i8]* %2, i64 0, i64 %39
  %41 = load i8, i8* %40, align 1
  %42 = sext i8 %41 to i32
  %43 = load i32, i32* %8, align 4
  %44 = sext i32 %43 to i64
  %45 = getelementptr inbounds [100 x i8], [100 x i8]* %3, i64 0, i64 %44
  %46 = load i8, i8* %45, align 1
  %47 = sext i8 %46 to i32
  %48 = icmp slt i32 %42, %47
  br i1 %48, label %49, label %88

49:                                               ; preds = %35
  %50 = load i32, i32* %8, align 4
  %51 = load i32, i32* %9, align 4
  %52 = add nsw i32 %50, %51
  %53 = sext i32 %52 to i64
  %54 = getelementptr inbounds [100 x i8], [100 x i8]* %2, i64 0, i64 %53
  %55 = load i8, i8* %54, align 1
  %56 = sext i8 %55 to i32
  %57 = add nsw i32 %56, 10
  %58 = load i32, i32* %8, align 4
  %59 = sext i32 %58 to i64
  %60 = getelementptr inbounds [100 x i8], [100 x i8]* %3, i64 0, i64 %59
  %61 = load i8, i8* %60, align 1
  %62 = sext i8 %61 to i32
  %63 = sub nsw i32 %57, %62
  %64 = add nsw i32 %63, 48
  %65 = trunc i32 %64 to i8
  %66 = load i32, i32* %8, align 4
  %67 = load i32, i32* %9, align 4
  %68 = add nsw i32 %66, %67
  %69 = sext i32 %68 to i64
  %70 = getelementptr inbounds [100 x i8], [100 x i8]* %2, i64 0, i64 %69
  store i8 %65, i8* %70, align 1
  store i32 1, i32* %10, align 4
  %71 = load i32, i32* %8, align 4
  %72 = load i32, i32* %9, align 4
  %73 = add nsw i32 %71, %72
  %74 = sub nsw i32 %73, 1
  %75 = sext i32 %74 to i64
  %76 = getelementptr inbounds [100 x i8], [100 x i8]* %2, i64 0, i64 %75
  %77 = load i8, i8* %76, align 1
  %78 = sext i8 %77 to i32
  %79 = load i32, i32* %10, align 4
  %80 = sub nsw i32 %78, %79
  %81 = trunc i32 %80 to i8
  %82 = load i32, i32* %8, align 4
  %83 = load i32, i32* %9, align 4
  %84 = add nsw i32 %82, %83
  %85 = sub nsw i32 %84, 1
  %86 = sext i32 %85 to i64
  %87 = getelementptr inbounds [100 x i8], [100 x i8]* %2, i64 0, i64 %86
  store i8 %81, i8* %87, align 1
  br label %109

88:                                               ; preds = %35
  %89 = load i32, i32* %8, align 4
  %90 = load i32, i32* %9, align 4
  %91 = add nsw i32 %89, %90
  %92 = sext i32 %91 to i64
  %93 = getelementptr inbounds [100 x i8], [100 x i8]* %2, i64 0, i64 %92
  %94 = load i8, i8* %93, align 1
  %95 = sext i8 %94 to i32
  %96 = load i32, i32* %8, align 4
  %97 = sext i32 %96 to i64
  %98 = getelementptr inbounds [100 x i8], [100 x i8]* %3, i64 0, i64 %97
  %99 = load i8, i8* %98, align 1
  %100 = sext i8 %99 to i32
  %101 = sub nsw i32 %95, %100
  %102 = add nsw i32 %101, 48
  %103 = trunc i32 %102 to i8
  %104 = load i32, i32* %8, align 4
  %105 = load i32, i32* %9, align 4
  %106 = add nsw i32 %104, %105
  %107 = sext i32 %106 to i64
  %108 = getelementptr inbounds [100 x i8], [100 x i8]* %2, i64 0, i64 %107
  store i8 %103, i8* %108, align 1
  br label %109

109:                                              ; preds = %88, %49
  br label %110

110:                                              ; preds = %109
  %111 = load i32, i32* %8, align 4
  %112 = add nsw i32 %111, -1
  store i32 %112, i32* %8, align 4
  br label %32

113:                                              ; preds = %32
  store i32 0, i32* %8, align 4
  br label %114

114:                                              ; preds = %125, %113
  %115 = load i32, i32* %8, align 4
  %116 = load i32, i32* %5, align 4
  %117 = icmp slt i32 %115, %116
  br i1 %117, label %118, label %128

118:                                              ; preds = %114
  %119 = load i32, i32* %8, align 4
  %120 = sext i32 %119 to i64
  %121 = getelementptr inbounds [100 x i8], [100 x i8]* %2, i64 0, i64 %120
  %122 = load i8, i8* %121, align 1
  %123 = sext i8 %122 to i32
  %124 = call i32 (i8*, ...) @printf(i8* getelementptr inbounds ([3 x i8], [3 x i8]* @.str.2, i64 0, i64 0), i32 %123)
  br label %125

125:                                              ; preds = %118
  %126 = load i32, i32* %8, align 4
  %127 = add nsw i32 %126, 1
  store i32 %127, i32* %8, align 4
  br label %114

128:                                              ; preds = %114
  %129 = call i32 (i8*, ...) @printf(i8* getelementptr inbounds ([2 x i8], [2 x i8]* @.str.3, i64 0, i64 0))
  %130 = call i32 (i8*, ...) @printf(i8* getelementptr inbounds ([2 x i8], [2 x i8]* @.str.3, i64 0, i64 0))
  br label %131

131:                                              ; preds = %128
  %132 = load i32, i32* %7, align 4
  %133 = add nsw i32 %132, 1
  store i32 %133, i32* %7, align 4
  br label %12

134:                                              ; preds = %12
  %135 = load i32, i32* %1, align 4
  ret i32 %135
}

declare dso_local i32 @__isoc99_scanf(i8*, ...) #1

; Function Attrs: nounwind readonly
declare dso_local i64 @strlen(i8*) #2

declare dso_local i32 @printf(i8*, ...) #1


!llvm.module.flags = !{!0}
!llvm.ident = !{!1}

!0 = !{i32 1, !"wchar_size", i32 4}
!1 = !{!"clang version 10.0.0-4ubuntu1 "}
