; ModuleID = 'source-C-CXX/31/553.c'
source_filename = "source-C-CXX/31/553.c"
target datalayout = "e-m:e-p270:32:32-p271:32:32-p272:64:64-i64:64-f80:128-n8:16:32:64-S128"
target triple = "x86_64-pc-linux-gnu"

@.str = private unnamed_addr constant [3 x i8] c"%d\00", align 1
@.str.1 = private unnamed_addr constant [3 x i8] c"%s\00", align 1

; Function Attrs: nofree nounwind sspstrong uwtable
define dso_local i32 @main() local_unnamed_addr #0 {
  %1 = alloca [100 x i8], align 16
  %2 = alloca [100 x i8], align 16
  %3 = alloca i32, align 4
  %4 = getelementptr inbounds [100 x i8], [100 x i8]* %1, i64 0, i64 0
  call void @llvm.lifetime.start.p0i8(i64 100, i8* nonnull %4) #5
  %5 = getelementptr inbounds [100 x i8], [100 x i8]* %2, i64 0, i64 0
  call void @llvm.lifetime.start.p0i8(i64 100, i8* nonnull %5) #5
  %6 = bitcast i32* %3 to i8*
  call void @llvm.lifetime.start.p0i8(i64 4, i8* nonnull %6) #5
  %7 = call i32 (i8*, ...) @__isoc99_scanf(i8* getelementptr inbounds ([3 x i8], [3 x i8]* @.str, i64 0, i64 0), i32* nonnull %3)
  %8 = load i32, i32* %3, align 4, !tbaa !5
  %9 = icmp sgt i32 %8, 0
  br i1 %9, label %10, label %66

10:                                               ; preds = %0, %60
  %11 = phi i32 [ %63, %60 ], [ 0, %0 ]
  %12 = call i32 (i8*, ...) @__isoc99_scanf(i8* getelementptr inbounds ([3 x i8], [3 x i8]* @.str.1, i64 0, i64 0), i8* nonnull %4)
  %13 = call i32 (i8*, ...) @__isoc99_scanf(i8* getelementptr inbounds ([3 x i8], [3 x i8]* @.str.1, i64 0, i64 0), i8* nonnull %5)
  %14 = call i64 @strlen(i8* noundef nonnull %4) #6
  %15 = trunc i64 %14 to i32
  %16 = call i64 @strlen(i8* noundef nonnull %5) #6
  %17 = trunc i64 %16 to i32
  %18 = sub nsw i32 %15, %17
  %19 = icmp sgt i32 %17, 0
  br i1 %19, label %20, label %23

20:                                               ; preds = %10
  %21 = shl i64 %16, 32
  %22 = ashr exact i64 %21, 32
  br label %27

23:                                               ; preds = %50, %10
  %24 = icmp sgt i32 %15, 0
  br i1 %24, label %25, label %60

25:                                               ; preds = %23
  %26 = and i64 %14, 4294967295
  br label %52

27:                                               ; preds = %20, %50
  %28 = phi i64 [ %22, %20 ], [ %30, %50 ]
  %29 = phi i32 [ %17, %20 ], [ %31, %50 ]
  %30 = add nsw i64 %28, -1
  %31 = add nsw i32 %29, -1
  %32 = add nsw i32 %31, %18
  %33 = sext i32 %32 to i64
  %34 = getelementptr inbounds [100 x i8], [100 x i8]* %1, i64 0, i64 %33
  %35 = load i8, i8* %34, align 1, !tbaa !9
  %36 = getelementptr inbounds [100 x i8], [100 x i8]* %2, i64 0, i64 %30
  %37 = load i8, i8* %36, align 1, !tbaa !9
  %38 = icmp slt i8 %35, %37
  br i1 %38, label %39, label %47

39:                                               ; preds = %27
  %40 = add i8 %35, 58
  %41 = sub i8 %40, %37
  store i8 %41, i8* %34, align 1, !tbaa !9
  %42 = add nsw i32 %32, -1
  %43 = sext i32 %42 to i64
  %44 = getelementptr inbounds [100 x i8], [100 x i8]* %1, i64 0, i64 %43
  %45 = load i8, i8* %44, align 1, !tbaa !9
  %46 = add i8 %45, -1
  store i8 %46, i8* %44, align 1, !tbaa !9
  br label %50

47:                                               ; preds = %27
  %48 = add i8 %35, 48
  %49 = sub i8 %48, %37
  store i8 %49, i8* %34, align 1, !tbaa !9
  br label %50

50:                                               ; preds = %39, %47
  %51 = icmp sgt i64 %28, 1
  br i1 %51, label %27, label %23, !llvm.loop !10

52:                                               ; preds = %25, %52
  %53 = phi i64 [ 0, %25 ], [ %58, %52 ]
  %54 = getelementptr inbounds [100 x i8], [100 x i8]* %1, i64 0, i64 %53
  %55 = load i8, i8* %54, align 1, !tbaa !9
  %56 = sext i8 %55 to i32
  %57 = call i32 @putchar(i32 %56)
  %58 = add nuw nsw i64 %53, 1
  %59 = icmp eq i64 %58, %26
  br i1 %59, label %60, label %52, !llvm.loop !12

60:                                               ; preds = %52, %23
  %61 = call i32 @putchar(i32 10)
  %62 = call i32 @putchar(i32 10)
  %63 = add nuw nsw i32 %11, 1
  %64 = load i32, i32* %3, align 4, !tbaa !5
  %65 = icmp slt i32 %63, %64
  br i1 %65, label %10, label %66, !llvm.loop !13

66:                                               ; preds = %60, %0
  call void @llvm.lifetime.end.p0i8(i64 4, i8* nonnull %6) #5
  call void @llvm.lifetime.end.p0i8(i64 100, i8* nonnull %5) #5
  call void @llvm.lifetime.end.p0i8(i64 100, i8* nonnull %4) #5
  ret i32 0
}

; Function Attrs: argmemonly mustprogress nofree nosync nounwind willreturn
declare void @llvm.lifetime.start.p0i8(i64 immarg, i8* nocapture) #1

; Function Attrs: nofree nounwind
declare noundef i32 @__isoc99_scanf(i8* nocapture noundef readonly, ...) local_unnamed_addr #2

; Function Attrs: argmemonly mustprogress nofree nounwind readonly willreturn
declare i64 @strlen(i8* nocapture) local_unnamed_addr #3

; Function Attrs: argmemonly mustprogress nofree nosync nounwind willreturn
declare void @llvm.lifetime.end.p0i8(i64 immarg, i8* nocapture) #1

; Function Attrs: nofree nounwind
declare noundef i32 @putchar(i32 noundef) local_unnamed_addr #4


!llvm.module.flags = !{!0, !1, !2, !3}
!llvm.ident = !{!4}

!0 = !{i32 1, !"wchar_size", i32 4}
!1 = !{i32 7, !"PIC Level", i32 2}
!2 = !{i32 7, !"PIE Level", i32 2}
!3 = !{i32 7, !"uwtable", i32 1}
!4 = !{!"clang version 13.0.0"}
!5 = !{!6, !6, i64 0}
!6 = !{!"int", !7, i64 0}
!7 = !{!"omnipotent char", !8, i64 0}
!8 = !{!"Simple C/C++ TBAA"}
!9 = !{!7, !7, i64 0}
!10 = distinct !{!10, !11}
!11 = !{!"llvm.loop.mustprogress"}
!12 = distinct !{!12, !11}
!13 = distinct !{!13, !11}
